target datalayout = "e-m:e-p270:32:32-p271:32:32-p272:64:64-i64:64-i128:128-f80:128-n8:16:32:64-S128"
target triple = "x86_64-pc-linux-gnu"

%struct.H5FD_multi_t = type { %struct.H5FD_t, %struct.H5FD_multi_fapl_t, [7 x i64], [7 x ptr], [7 x i64], i32, ptr }
%struct.H5FD_t = type { i64, ptr, i64, i32, i64, i64, i64, i64, i64, i8 }
%struct.H5FD_multi_fapl_t = type { [7 x i32], [7 x i64], [7 x ptr], [7 x i64], i8 }
%union.anon.4 = type { ptr }

@.str.1 = private unnamed_addr constant [103 x i8] c"generated/home/dtcxzyw/WorkSpace/Projects/compilers/llvm-opt-benchmark/bench/hdf5/hdf5/src/H5FDmulti.c\00", align 1
@H5_libinit_g = external global i8, align 1
@H5_libterm_g = external global i8, align 1
@H5E_ERR_CLS_g = external global i64, align 8
@H5E_BADVALUE_g = external global i64, align 8
@H5E_FILE_g = external global i64, align 8
@__func__.H5FD_multi_set_eoa = private unnamed_addr constant [19 x i8] c"H5FD_multi_set_eoa\00", align 1
@.str.36 = private unnamed_addr constant [26 x i8] c"member H5FDset_eoa failed\00", align 1

; Function Attrs: nounwind uwtable
define internal i32 @H5FD_multi_set_eoa(ptr noundef %0, i32 noundef %1, i64 noundef %2) #0 {
  %4 = alloca i32, align 4
  %5 = alloca ptr, align 8
  %6 = alloca i32, align 4
  %7 = alloca i64, align 8
  %8 = alloca ptr, align 8
  %9 = alloca i32, align 4
  %10 = alloca i32, align 4
  %11 = alloca i32, align 4
  %12 = alloca i32, align 4
  %13 = alloca %union.anon.4, align 8
  %14 = alloca ptr, align 8
  store ptr %0, ptr %5, align 8, !tbaa !3
  store i32 %1, ptr %6, align 4, !tbaa !10
  store i64 %2, ptr %7, align 8, !tbaa !12
  call void @llvm.lifetime.start.p0(i64 8, ptr %8) #9
  %15 = load ptr, ptr %5, align 8, !tbaa !3
  store ptr %15, ptr %8, align 8, !tbaa !8
  call void @llvm.lifetime.start.p0(i64 4, ptr %9) #9
  call void @llvm.lifetime.start.p0(i64 4, ptr %10) #9
  %16 = call i32 @H5Eclear2(i64 noundef 0)
  %17 = load ptr, ptr %8, align 8, !tbaa !8
  %18 = getelementptr inbounds nuw %struct.H5FD_multi_t, ptr %17, i32 0, i32 1
  %19 = getelementptr inbounds nuw %struct.H5FD_multi_fapl_t, ptr %18, i32 0, i32 0
  %20 = load i32, ptr %6, align 4, !tbaa !10
  %21 = sext i32 %20 to i64
  %22 = getelementptr inbounds [7 x i32], ptr %19, i64 0, i64 %21
  %23 = load i32, ptr %22, align 4, !tbaa !10
  store i32 %23, ptr %9, align 4, !tbaa !10
  %24 = load i32, ptr %9, align 4, !tbaa !10
  %25 = icmp eq i32 0, %24
  br i1 %25, label %26, label %33

26:                                               ; preds = %3
  %27 = load i32, ptr %6, align 4, !tbaa !10
  %28 = icmp eq i32 0, %27
  br i1 %28, label %29, label %30

29:                                               ; preds = %26
  store i32 1, ptr %9, align 4, !tbaa !10
  br label %32

30:                                               ; preds = %26
  %31 = load i32, ptr %6, align 4, !tbaa !10
  store i32 %31, ptr %9, align 4, !tbaa !10
  br label %32

32:                                               ; preds = %30, %29
  br label %33

33:                                               ; preds = %32, %3
  %34 = load i32, ptr %9, align 4, !tbaa !10
  %35 = icmp eq i32 1, %34
  br i1 %35, label %36, label %51

36:                                               ; preds = %33
  %37 = load ptr, ptr %8, align 8, !tbaa !8
  %38 = getelementptr inbounds nuw %struct.H5FD_multi_t, ptr %37, i32 0, i32 4
  %39 = getelementptr inbounds [7 x i64], ptr %38, i64 0, i64 1
  %40 = load i64, ptr %39, align 8, !tbaa !12
  %41 = icmp ugt i64 %40, 0
  br i1 %41, label %42, label %51

42:                                               ; preds = %36
  %43 = load i64, ptr %7, align 8, !tbaa !12
  %44 = load ptr, ptr %8, align 8, !tbaa !8
  %45 = getelementptr inbounds nuw %struct.H5FD_multi_t, ptr %44, i32 0, i32 2
  %46 = getelementptr inbounds [7 x i64], ptr %45, i64 0, i64 1
  %47 = load i64, ptr %46, align 8, !tbaa !12
  %48 = udiv i64 %47, 2
  %49 = icmp ugt i64 %43, %48
  br i1 %49, label %50, label %51

50:                                               ; preds = %42
  store i32 0, ptr %4, align 4
  store i32 1, ptr %11, align 4
  br label %155

51:                                               ; preds = %42, %36, %33
  call void @llvm.lifetime.start.p0(i64 4, ptr %12) #9
  call void @llvm.lifetime.start.p0(i64 8, ptr %13) #9
  call void @llvm.lifetime.start.p0(i64 8, ptr %14) #9
  %52 = call i32 @H5Eauto_is_v2(i64 noundef 0, ptr noundef %12)
  %53 = load i32, ptr %12, align 4, !tbaa !10
  %54 = icmp ne i32 %53, 0
  br i1 %54, label %55, label %58

55:                                               ; preds = %51
  %56 = call i32 @H5Eget_auto2(i64 noundef 0, ptr noundef %13, ptr noundef %14)
  %57 = call i32 @H5Eset_auto2(i64 noundef 0, ptr noundef null, ptr noundef null)
  br label %61

58:                                               ; preds = %51
  %59 = call i32 @H5Eget_auto1(ptr noundef %13, ptr noundef %14)
  %60 = call i32 @H5Eset_auto1(ptr noundef null, ptr noundef null)
  br label %61

61:                                               ; preds = %58, %55
  %62 = load ptr, ptr %8, align 8, !tbaa !8
  %63 = getelementptr inbounds nuw %struct.H5FD_multi_t, ptr %62, i32 0, i32 3
  %64 = load i32, ptr %9, align 4, !tbaa !10
  %65 = sext i32 %64 to i64
  %66 = getelementptr inbounds [7 x ptr], ptr %63, i64 0, i64 %65
  %67 = load ptr, ptr %66, align 8, !tbaa !3
  %68 = load i32, ptr %9, align 4, !tbaa !10
  %69 = load i64, ptr %7, align 8, !tbaa !12
  %70 = load ptr, ptr %8, align 8, !tbaa !8
  %71 = getelementptr inbounds nuw %struct.H5FD_multi_t, ptr %70, i32 0, i32 1
  %72 = getelementptr inbounds nuw %struct.H5FD_multi_fapl_t, ptr %71, i32 0, i32 3
  %73 = load i32, ptr %9, align 4, !tbaa !10
  %74 = sext i32 %73 to i64
  %75 = getelementptr inbounds [7 x i64], ptr %72, i64 0, i64 %74
  %76 = load i64, ptr %75, align 8, !tbaa !12
  %77 = sub i64 %69, %76
  %78 = call i32 @H5FDset_eoa(ptr noundef %67, i32 noundef %68, i64 noundef %77)
  store i32 %78, ptr %10, align 4, !tbaa !10
  %79 = load i32, ptr %12, align 4, !tbaa !10
  %80 = icmp ne i32 %79, 0
  br i1 %80, label %81, label %85

81:                                               ; preds = %61
  %82 = load ptr, ptr %13, align 8, !tbaa !19
  %83 = load ptr, ptr %14, align 8, !tbaa !40
  %84 = call i32 @H5Eset_auto2(i64 noundef 0, ptr noundef %82, ptr noundef %83)
  br label %89

85:                                               ; preds = %61
  %86 = load ptr, ptr %13, align 8, !tbaa !19
  %87 = load ptr, ptr %14, align 8, !tbaa !40
  %88 = call i32 @H5Eset_auto1(ptr noundef %86, ptr noundef %87)
  br label %89

89:                                               ; preds = %85, %81
  call void @llvm.lifetime.end.p0(i64 8, ptr %14) #9
  call void @llvm.lifetime.end.p0(i64 8, ptr %13) #9
  call void @llvm.lifetime.end.p0(i64 4, ptr %12) #9
  %90 = load i32, ptr %10, align 4, !tbaa !10
  %91 = icmp slt i32 %90, 0
  br i1 %91, label %92, label %154

92:                                               ; preds = %89
  br label %93

93:                                               ; preds = %92
  %94 = load i8, ptr @H5_libinit_g, align 1, !tbaa !22, !range !24, !noundef !25
  %95 = trunc i8 %94 to i1
  br i1 %95, label %100, label %96

96:                                               ; preds = %93
  %97 = load i8, ptr @H5_libterm_g, align 1, !tbaa !22, !range !24, !noundef !25
  %98 = trunc i8 %97 to i1
  %99 = xor i1 %98, true
  br label %100

100:                                              ; preds = %96, %93
  %101 = phi i1 [ false, %93 ], [ %99, %96 ]
  %102 = xor i1 %101, true
  %103 = xor i1 %102, true
  %104 = zext i1 %103 to i32
  %105 = sext i32 %104 to i64
  %106 = call i64 @llvm.expect.i64(i64 %105, i64 0)
  %107 = icmp ne i64 %106, 0
  br i1 %107, label %108, label %110

108:                                              ; preds = %100
  %109 = call i32 @H5open()
  br label %111

110:                                              ; preds = %100
  br label %111

111:                                              ; preds = %110, %108
  %112 = load i64, ptr @H5E_ERR_CLS_g, align 8, !tbaa !12
  %113 = load i8, ptr @H5_libinit_g, align 1, !tbaa !22, !range !24, !noundef !25
  %114 = trunc i8 %113 to i1
  br i1 %114, label %119, label %115

115:                                              ; preds = %111
  %116 = load i8, ptr @H5_libterm_g, align 1, !tbaa !22, !range !24, !noundef !25
  %117 = trunc i8 %116 to i1
  %118 = xor i1 %117, true
  br label %119

119:                                              ; preds = %115, %111
  %120 = phi i1 [ false, %111 ], [ %118, %115 ]
  %121 = xor i1 %120, true
  %122 = xor i1 %121, true
  %123 = zext i1 %122 to i32
  %124 = sext i32 %123 to i64
  %125 = call i64 @llvm.expect.i64(i64 %124, i64 0)
  %126 = icmp ne i64 %125, 0
  br i1 %126, label %127, label %129

127:                                              ; preds = %119
  %128 = call i32 @H5open()
  br label %130

129:                                              ; preds = %119
  br label %130

130:                                              ; preds = %129, %127
  %131 = load i64, ptr @H5E_FILE_g, align 8, !tbaa !12
  %132 = load i8, ptr @H5_libinit_g, align 1, !tbaa !22, !range !24, !noundef !25
  %133 = trunc i8 %132 to i1
  br i1 %133, label %138, label %134

134:                                              ; preds = %130
  %135 = load i8, ptr @H5_libterm_g, align 1, !tbaa !22, !range !24, !noundef !25
  %136 = trunc i8 %135 to i1
  %137 = xor i1 %136, true
  br label %138

138:                                              ; preds = %134, %130
  %139 = phi i1 [ false, %130 ], [ %137, %134 ]
  %140 = xor i1 %139, true
  %141 = xor i1 %140, true
  %142 = zext i1 %141 to i32
  %143 = sext i32 %142 to i64
  %144 = call i64 @llvm.expect.i64(i64 %143, i64 0)
  %145 = icmp ne i64 %144, 0
  br i1 %145, label %146, label %148

146:                                              ; preds = %138
  %147 = call i32 @H5open()
  br label %149

148:                                              ; preds = %138
  br label %149

149:                                              ; preds = %148, %146
  %150 = load i64, ptr @H5E_BADVALUE_g, align 8, !tbaa !12
  %151 = call i32 (i64, ptr, ptr, i32, i64, i64, i64, ptr, ...) @H5Epush2(i64 noundef 0, ptr noundef @.str.1, ptr noundef @__func__.H5FD_multi_set_eoa, i32 noundef 1401, i64 noundef %112, i64 noundef %131, i64 noundef %150, ptr noundef @.str.36)
  store i32 -1, ptr %4, align 4
  store i32 1, ptr %11, align 4
  br label %155

152:                                              ; No predecessors!
  br label %153

153:                                              ; preds = %152
  br label %154

154:                                              ; preds = %153, %89
  store i32 0, ptr %4, align 4
  store i32 1, ptr %11, align 4
  br label %155

155:                                              ; preds = %154, %149, %50
  call void @llvm.lifetime.end.p0(i64 4, ptr %10) #9
  call void @llvm.lifetime.end.p0(i64 4, ptr %9) #9
  call void @llvm.lifetime.end.p0(i64 8, ptr %8) #9
  %156 = load i32, ptr %4, align 4
  ret i32 %156
}