; Function Attrs: nounwind uwtable
define internal range(i32 -1, 1) i32 @H5FD_multi_set_eoa(ptr noundef readonly captures(none) %0, i32 noundef %1, i64 noundef %2) #0 {
  %4 = alloca i32, align 4
  %5 = alloca %union.anon.4, align 8
  %6 = alloca ptr, align 8
  %7 = tail call i32 @H5Eclear2(i64 noundef 0) #15
  %8 = getelementptr inbounds nuw i8, ptr %0, i64 80
  %9 = sext i32 %1 to i64
  %10 = getelementptr inbounds [7 x i32], ptr %8, i64 0, i64 %9
  %11 = load i32, ptr %10, align 4, !tbaa !3
  %12 = icmp eq i32 %11, 0
  %. = tail call i32 @llvm.umax.i32(i32 %1, i32 1)
  %.017 = select i1 %12, i32 %., i32 %11
  %13 = icmp eq i32 %.017, 1
  br i1 %13, label %14, label %22

14:                                               ; preds = %3
  %15 = getelementptr inbounds nuw i8, ptr %0, i64 408
  %16 = load i64, ptr %15, align 8, !tbaa !23
  %.not = icmp eq i64 %16, 0
  br i1 %.not, label %22, label %17

17:                                               ; preds = %14
  %18 = getelementptr inbounds nuw i8, ptr %0, i64 296
  %19 = load i64, ptr %18, align 8, !tbaa !23
  %20 = lshr i64 %19, 1
  %21 = icmp ugt i64 %2, %20
  br i1 %21, label %79, label %22

22:                                               ; preds = %17, %14, %3
  call void @llvm.lifetime.start.p0(i64 4, ptr nonnull %4) #15
  call void @llvm.lifetime.start.p0(i64 8, ptr nonnull %5) #15
  call void @llvm.lifetime.start.p0(i64 8, ptr nonnull %6) #15
  %23 = call i32 @H5Eauto_is_v2(i64 noundef 0, ptr noundef nonnull %4) #15
  %24 = load i32, ptr %4, align 4, !tbaa !3
  %.not20 = icmp eq i32 %24, 0
  br i1 %.not20, label %28, label %25

25:                                               ; preds = %22
  %26 = call i32 @H5Eget_auto2(i64 noundef 0, ptr noundef nonnull %5, ptr noundef nonnull %6) #15
  %27 = call i32 @H5Eset_auto2(i64 noundef 0, ptr noundef null, ptr noundef null) #15
  br label %31

28:                                               ; preds = %22
  %29 = call i32 @H5Eget_auto1(ptr noundef nonnull %5, ptr noundef nonnull %6) #15
  %30 = call i32 @H5Eset_auto1(ptr noundef null, ptr noundef null) #15
  br label %31

31:                                               ; preds = %28, %25
  %32 = getelementptr inbounds nuw i8, ptr %0, i64 344
  %33 = sext i32 %.017 to i64
  %34 = getelementptr inbounds [7 x ptr], ptr %32, i64 0, i64 %33
  %35 = load ptr, ptr %34, align 8, !tbaa !15
  %36 = getelementptr inbounds nuw i8, ptr %0, i64 224
  %37 = getelementptr inbounds [7 x i64], ptr %36, i64 0, i64 %33
  %38 = load i64, ptr %37, align 8, !tbaa !23
  %39 = sub i64 %2, %38
  %40 = call i32 @H5FDset_eoa(ptr noundef %35, i32 noundef %.017, i64 noundef %39) #15
  %41 = load i32, ptr %4, align 4, !tbaa !3
  %.not21 = icmp eq i32 %41, 0
  %42 = load ptr, ptr %5, align 8, !tbaa !13
  %43 = load ptr, ptr %6, align 8, !tbaa !39
  br i1 %.not21, label %46, label %44

44:                                               ; preds = %31
  %45 = call i32 @H5Eset_auto2(i64 noundef 0, ptr noundef %42, ptr noundef %43) #15
  br label %48

46:                                               ; preds = %31
  %47 = call i32 @H5Eset_auto1(ptr noundef %42, ptr noundef %43) #15
  br label %48

48:                                               ; preds = %46, %44
  call void @llvm.lifetime.end.p0(i64 8, ptr nonnull %6) #15
  call void @llvm.lifetime.end.p0(i64 8, ptr nonnull %5) #15
  call void @llvm.lifetime.end.p0(i64 4, ptr nonnull %4) #15
  %49 = icmp slt i32 %40, 0
  br i1 %49, label %50, label %79

50:                                               ; preds = %48
  %51 = load i8, ptr @H5_libinit_g, align 1, !tbaa !18, !range !20, !noundef !21
  %52 = trunc nuw i8 %51 to i1
  %53 = load i8, ptr @H5_libterm_g, align 1, !range !20
  %54 = trunc nuw i8 %53 to i1
  %55 = select i1 %52, i1 true, i1 %54
  br i1 %55, label %58, label %56, !prof !22

56:                                               ; preds = %50
  %57 = call i32 @H5open() #15
  %.pre = load i8, ptr @H5_libinit_g, align 1, !tbaa !18, !range !20
  %.pre22 = load i8, ptr @H5_libterm_g, align 1, !range !20
  br label %58

58:                                               ; preds = %50, %56
  %59 = phi i8 [ %53, %50 ], [ %.pre22, %56 ]
  %60 = phi i8 [ %51, %50 ], [ %.pre, %56 ]
  %61 = load i64, ptr @H5E_ERR_CLS_g, align 8, !tbaa !23
  %62 = trunc nuw i8 %60 to i1
  %63 = trunc nuw i8 %59 to i1
  %64 = select i1 %62, i1 true, i1 %63
  br i1 %64, label %67, label %65, !prof !22

65:                                               ; preds = %58
  %66 = call i32 @H5open() #15
  %.pre23 = load i8, ptr @H5_libinit_g, align 1, !tbaa !18, !range !20
  %.pre24 = load i8, ptr @H5_libterm_g, align 1, !range !20
  br label %67

67:                                               ; preds = %58, %65
  %68 = phi i8 [ %59, %58 ], [ %.pre24, %65 ]
  %69 = phi i8 [ %60, %58 ], [ %.pre23, %65 ]
  %70 = load i64, ptr @H5E_FILE_g, align 8, !tbaa !23
  %71 = trunc nuw i8 %69 to i1
  %72 = trunc nuw i8 %68 to i1
  %73 = select i1 %71, i1 true, i1 %72
  br i1 %73, label %76, label %74, !prof !22

74:                                               ; preds = %67
  %75 = call i32 @H5open() #15
  br label %76

76:                                               ; preds = %67, %74
  %77 = load i64, ptr @H5E_BADVALUE_g, align 8, !tbaa !23
  %78 = call i32 (i64, ptr, ptr, i32, i64, i64, i64, ptr, ...) @H5Epush2(i64 noundef 0, ptr noundef nonnull @.str.1, ptr noundef nonnull @__func__.H5FD_multi_set_eoa, i32 noundef 1401, i64 noundef %61, i64 noundef %70, i64 noundef %77, ptr noundef nonnull @.str.36) #15
  br label %79

79:                                               ; preds = %48, %17, %76
  %.0 = phi i32 [ -1, %76 ], [ 0, %17 ], [ 0, %48 ]
  ret i32 %.0
}